target datalayout = "e-m:e-p270:32:32-p271:32:32-p272:64:64-i64:64-i128:128-f80:128-n8:16:32:64-S128"
target triple = "x86_64-pc-linux-gnu"

; Function Attrs: nounwind uwtable
define internal ptr @memoryview__from_flags_impl(ptr noundef %0, ptr noundef %1, i32 noundef %2) #0 {
  %4 = alloca ptr, align 8
  %5 = alloca ptr, align 8
  %6 = alloca i32, align 4
  store ptr %0, ptr %4, align 8, !tbaa !70
  store ptr %1, ptr %5, align 8, !tbaa !4
  store i32 %2, ptr %6, align 4, !tbaa !21
  %7 = load ptr, ptr %5, align 8, !tbaa !4
  %8 = load i32, ptr %6, align 4, !tbaa !21
  %9 = call ptr @PyMemoryView_FromObjectAndFlags(ptr noundef %7, i32 noundef %8)
  ret ptr %9
}

; Function Attrs: nounwind uwtable
define internal ptr @memoryview__from_flags(ptr noundef %0, ptr noundef %1, i64 noundef %2, ptr noundef %3) #0 {
  %5 = alloca ptr, align 8
  %6 = alloca ptr, align 8
  %7 = alloca i64, align 8
  %8 = alloca ptr, align 8
  %9 = alloca ptr, align 8
  %10 = alloca [2 x ptr], align 16
  %11 = alloca ptr, align 8
  %12 = alloca i32, align 4
  store ptr %0, ptr %5, align 8, !tbaa !70
  store ptr %1, ptr %6, align 8, !tbaa !71
  store i64 %2, ptr %7, align 8, !tbaa !23
  store ptr %3, ptr %8, align 8, !tbaa !4
  call void @llvm.lifetime.start.p0(i64 8, ptr %9) #9
  store ptr null, ptr %9, align 8, !tbaa !4
  call void @llvm.lifetime.start.p0(i64 16, ptr %10) #9
  call void @llvm.lifetime.start.p0(i64 8, ptr %11) #9
  call void @llvm.lifetime.start.p0(i64 4, ptr %12) #9
  %13 = load ptr, ptr %8, align 8, !tbaa !4
  %14 = icmp eq ptr %13, null
  br i1 %14, label %15, label %26

15:                                               ; preds = %4
  %16 = load i64, ptr %7, align 8, !tbaa !23
  %17 = icmp sle i64 2, %16
  br i1 %17, label %18, label %26

18:                                               ; preds = %15
  %19 = load i64, ptr %7, align 8, !tbaa !23
  %20 = icmp sle i64 %19, 2
  br i1 %20, label %21, label %26

21:                                               ; preds = %18
  %22 = load ptr, ptr %6, align 8, !tbaa !71
  %23 = icmp ne ptr %22, null
  br i1 %23, label %24, label %26

24:                                               ; preds = %21
  %25 = load ptr, ptr %6, align 8, !tbaa !71
  br label %32

26:                                               ; preds = %21, %18, %15, %4
  %27 = load ptr, ptr %6, align 8, !tbaa !71
  %28 = load i64, ptr %7, align 8, !tbaa !23
  %29 = load ptr, ptr %8, align 8, !tbaa !4
  %30 = getelementptr inbounds [2 x ptr], ptr %10, i64 0, i64 0
  %31 = call ptr @_PyArg_UnpackKeywords(ptr noundef %27, i64 noundef %28, ptr noundef null, ptr noundef %29, ptr noundef @memoryview__from_flags._parser, i32 noundef 2, i32 noundef 2, i32 noundef 0, i32 noundef 0, ptr noundef %30)
  br label %32

32:                                               ; preds = %26, %24
  %33 = phi ptr [ %25, %24 ], [ %31, %26 ]
  store ptr %33, ptr %6, align 8, !tbaa !71
  %34 = load ptr, ptr %6, align 8, !tbaa !71
  %35 = icmp ne ptr %34, null
  br i1 %35, label %37, label %36

36:                                               ; preds = %32
  br label %56

37:                                               ; preds = %32
  %38 = load ptr, ptr %6, align 8, !tbaa !71
  %39 = getelementptr ptr, ptr %38, i64 0
  %40 = load ptr, ptr %39, align 8, !tbaa !4
  store ptr %40, ptr %11, align 8, !tbaa !4
  %41 = load ptr, ptr %6, align 8, !tbaa !71
  %42 = getelementptr ptr, ptr %41, i64 1
  %43 = load ptr, ptr %42, align 8, !tbaa !4
  %44 = call i32 @PyLong_AsInt(ptr noundef %43)
  store i32 %44, ptr %12, align 4, !tbaa !21
  %45 = load i32, ptr %12, align 4, !tbaa !21
  %46 = icmp eq i32 %45, -1
  br i1 %46, label %47, label %51

47:                                               ; preds = %37
  %48 = call ptr @PyErr_Occurred()
  %49 = icmp ne ptr %48, null
  br i1 %49, label %50, label %51

50:                                               ; preds = %47
  br label %56

51:                                               ; preds = %47, %37
  %52 = load ptr, ptr %5, align 8, !tbaa !70
  %53 = load ptr, ptr %11, align 8, !tbaa !4
  %54 = load i32, ptr %12, align 4, !tbaa !21
  %55 = call ptr @memoryview__from_flags_impl(ptr noundef %52, ptr noundef %53, i32 noundef %54)
  store ptr %55, ptr %9, align 8, !tbaa !4
  br label %56

56:                                               ; preds = %51, %50, %36
  %57 = load ptr, ptr %9, align 8, !tbaa !4
  call void @llvm.lifetime.end.p0(i64 4, ptr %12) #9
  call void @llvm.lifetime.end.p0(i64 8, ptr %11) #9
  call void @llvm.lifetime.end.p0(i64 16, ptr %10) #9
  call void @llvm.lifetime.end.p0(i64 8, ptr %9) #9
  ret ptr %57
}