; Function Attrs: nounwind uwtable
define internal ptr @memoryview__from_flags(ptr readnone captures(none) %0, ptr noundef %1, i64 noundef %2, ptr noundef %3) #0 {
  %5 = alloca [2 x ptr], align 16
  call void @llvm.lifetime.start.p0(i64 16, ptr nonnull %5) #14
  %6 = icmp eq ptr %3, null
  %7 = icmp eq i64 %2, 2
  %or.cond3 = and i1 %7, %6
  %8 = icmp ne ptr %1, null
  %or.cond5 = and i1 %8, %or.cond3
  br i1 %or.cond5, label %.thread, label %9

9:                                                ; preds = %4
  %10 = call ptr @_PyArg_UnpackKeywords(ptr noundef %1, i64 noundef %2, ptr noundef null, ptr noundef %3, ptr noundef nonnull @memoryview__from_flags._parser, i32 noundef 2, i32 noundef 2, i32 noundef 0, i32 noundef 0, ptr noundef nonnull %5) #14
  %.not = icmp eq ptr %10, null
  br i1 %.not, label %20, label %.thread

.thread:                                          ; preds = %4, %9
  %11 = phi ptr [ %10, %9 ], [ %1, %4 ]
  %12 = load ptr, ptr %11, align 8, !tbaa !104
  %13 = getelementptr i8, ptr %11, i64 8
  %14 = load ptr, ptr %13, align 8, !tbaa !104
  %15 = call i32 @PyLong_AsInt(ptr noundef %14) #14
  %16 = icmp eq i32 %15, -1
  br i1 %16, label %17, label %.sink.split

17:                                               ; preds = %.thread
  %18 = call ptr @PyErr_Occurred() #14
  %.not24 = icmp eq ptr %18, null
  br i1 %.not24, label %.sink.split, label %20

.sink.split:                                      ; preds = %17, %.thread
  %.sink = phi i32 [ %15, %.thread ], [ -1, %17 ]
  %19 = call fastcc ptr @PyMemoryView_FromObjectAndFlags(ptr noundef %12, i32 noundef %.sink)
  br label %20

20:                                               ; preds = %.sink.split, %17, %9
  %.0 = phi ptr [ null, %17 ], [ null, %9 ], [ %19, %.sink.split ]
  call void @llvm.lifetime.end.p0(i64 16, ptr nonnull %5) #14
  ret ptr %.0
}